; Function Attrs: mustprogress nofree nounwind willreturn memory(read) uwtable
define noundef ptr @_ZN32pxrInternal_v0_24__pxrReserved__29HdEncapsulatingSceneIndexBase4CastERKNS_8TfRefPtrINS_16HdSceneIndexBaseEEE(ptr nocapture noundef nonnull readonly align 8 dereferenceable(8) %0) local_unnamed_addr #0 align 2 {
  %2 = load ptr, ptr %0, align 8
  %3 = icmp eq ptr %2, null
  br i1 %3, label %6, label %4

4:                                                ; preds = %1
  %5 = tail call ptr @__dynamic_cast(ptr nonnull %2, ptr nonnull @_ZTIN32pxrInternal_v0_24__pxrReserved__16HdSceneIndexBaseE, ptr nonnull @_ZTIN32pxrInternal_v0_24__pxrReserved__29HdEncapsulatingSceneIndexBaseE, i64 -2) #13
  br label %6

6:                                                ; preds = %1, %4
  %7 = phi ptr [ %5, %4 ], [ null, %1 ]
  ret ptr %7
}